target datalayout = "e-m:e-p270:32:32-p271:32:32-p272:64:64-i64:64-i128:128-f80:128-n8:16:32:64-S128"
target triple = "x86_64-pc-linux-gnu"

%struct.SDL_GUID = type { [16 x i8] }
%struct.GamepadMapping_t = type { %struct.SDL_GUID, ptr, ptr, i32, ptr }

@.str.8 = private unnamed_addr constant [2 x i8] c"*\00", align 1

; Function Attrs: nounwind uwtable
define hidden ptr @SDL_GetGamepadNameForID_REAL(i32 noundef %0) #0 {
  %2 = alloca i32, align 4
  %3 = alloca ptr, align 8
  %4 = alloca ptr, align 8
  store i32 %0, ptr %2, align 4
  call void @llvm.lifetime.start.p0(i64 8, ptr %3) #8
  store ptr null, ptr %3, align 8
  call void @SDL_LockJoysticks_REAL()
  call void @llvm.lifetime.start.p0(i64 8, ptr %4) #8
  %5 = load i32, ptr %2, align 4
  %6 = call ptr @SDL_PrivateGetGamepadMapping(i32 noundef %5, i1 noundef zeroext true)
  store ptr %6, ptr %4, align 8
  %7 = load ptr, ptr %4, align 8
  %8 = icmp ne ptr %7, null
  br i1 %8, label %9, label %24

9:                                                ; preds = %1
  %10 = load ptr, ptr %4, align 8
  %11 = getelementptr inbounds nuw %struct.GamepadMapping_t, ptr %10, i32 0, i32 1
  %12 = load ptr, ptr %11, align 8
  %13 = call i32 @SDL_strcmp_REAL(ptr noundef %12, ptr noundef @.str.8)
  %14 = icmp eq i32 %13, 0
  br i1 %14, label %15, label %18

15:                                               ; preds = %9
  %16 = load i32, ptr %2, align 4
  %17 = call ptr @SDL_GetJoystickNameForID_REAL(i32 noundef %16)
  store ptr %17, ptr %3, align 8
  br label %23

18:                                               ; preds = %9
  %19 = load ptr, ptr %4, align 8
  %20 = getelementptr inbounds nuw %struct.GamepadMapping_t, ptr %19, i32 0, i32 1
  %21 = load ptr, ptr %20, align 8
  %22 = call ptr @SDL_GetPersistentString(ptr noundef %21)
  store ptr %22, ptr %3, align 8
  br label %23

23:                                               ; preds = %18, %15
  br label %24

24:                                               ; preds = %23, %1
  call void @llvm.lifetime.end.p0(i64 8, ptr %4) #8
  call void @SDL_UnlockJoysticks_REAL()
  %25 = load ptr, ptr %3, align 8
  call void @llvm.lifetime.end.p0(i64 8, ptr %3) #8
  ret ptr %25
}