; Function Attrs: nounwind uwtable
define hidden ptr @SDL_GetGamepadNameForID_REAL(i32 noundef %0) local_unnamed_addr #0 {
  tail call void @SDL_LockJoysticks_REAL() #10
  %2 = tail call fastcc ptr @SDL_PrivateGetGamepadMapping(i32 noundef %0, i1 noundef zeroext true)
  %.not = icmp eq ptr %2, null
  br i1 %.not, label %13, label %3

3:                                                ; preds = %1
  %4 = getelementptr inbounds nuw i8, ptr %2, i64 16
  %5 = load ptr, ptr %4, align 8
  %6 = tail call i32 @SDL_strcmp_REAL(ptr noundef %5, ptr noundef nonnull @.str.8) #10
  %7 = icmp eq i32 %6, 0
  br i1 %7, label %8, label %10

8:                                                ; preds = %3
  %9 = tail call ptr @SDL_GetJoystickNameForID_REAL(i32 noundef %0) #10
  br label %13

10:                                               ; preds = %3
  %11 = load ptr, ptr %4, align 8
  %12 = tail call ptr @SDL_GetPersistentString(ptr noundef %11) #10
  br label %13

13:                                               ; preds = %8, %10, %1
  %.0 = phi ptr [ %9, %8 ], [ %12, %10 ], [ null, %1 ]
  tail call void @SDL_UnlockJoysticks_REAL() #10
  ret ptr %.0
}